
Exercise3-d part.elf:     file format elf32-littlearm

Sections:
Idx Name          Size      VMA       LMA       File off  Algn
  0 .isr_vector   00000194  08000000  08000000  00010000  2**0
                  CONTENTS, ALLOC, LOAD, READONLY, DATA
  1 .text         00000230  08000194  08000194  00010194  2**2
                  CONTENTS, ALLOC, LOAD, READONLY, CODE
  2 .rodata       00000000  080003c4  080003c4  00020040  2**0
                  CONTENTS, ALLOC, LOAD, DATA
  3 .ARM.extab    00000000  080003c4  080003c4  00020040  2**0
                  CONTENTS
  4 .ARM          00000000  080003c4  080003c4  00020040  2**0
                  CONTENTS
  5 .preinit_array 00000000  080003c4  080003c4  00020040  2**0
                  CONTENTS, ALLOC, LOAD, DATA
  6 .init_array   00000004  080003c4  080003c4  000103c4  2**2
                  CONTENTS, ALLOC, LOAD, DATA
  7 .fini_array   00000004  080003c8  080003c8  000103c8  2**2
                  CONTENTS, ALLOC, LOAD, DATA
  8 .data         00000040  20000000  080003cc  00020000  2**2
                  CONTENTS, ALLOC, LOAD, DATA
  9 .ccmram       00000000  10000000  10000000  00020040  2**0
                  CONTENTS
 10 .bss          0000001c  20000040  20000040  00020040  2**2
                  ALLOC
 11 ._user_heap_stack 00000604  2000005c  2000005c  00020040  2**0
                  ALLOC
 12 .ARM.attributes 00000030  00000000  00000000  00020040  2**0
                  CONTENTS, READONLY
 13 .comment      00000043  00000000  00000000  00020070  2**0
                  CONTENTS, READONLY
 14 .debug_line   00000153  00000000  00000000  000200b3  2**0
                  CONTENTS, READONLY, DEBUGGING, OCTETS
 15 .debug_line_str 00000084  00000000  00000000  00020206  2**0
                  CONTENTS, READONLY, DEBUGGING, OCTETS
 16 .debug_info   00000048  00000000  00000000  0002028a  2**0
                  CONTENTS, READONLY, DEBUGGING, OCTETS
 17 .debug_abbrev 00000026  00000000  00000000  000202d2  2**0
                  CONTENTS, READONLY, DEBUGGING, OCTETS
 18 .debug_aranges 00000048  00000000  00000000  000202f8  2**3
                  CONTENTS, READONLY, DEBUGGING, OCTETS
 19 .debug_str    00000085  00000000  00000000  00020340  2**0
                  CONTENTS, READONLY, DEBUGGING, OCTETS
 20 .debug_rnglists 00000019  00000000  00000000  000203c5  2**0
                  CONTENTS, READONLY, DEBUGGING, OCTETS
 21 .debug_frame  0000002c  00000000  00000000  000203e0  2**2
                  CONTENTS, READONLY, DEBUGGING, OCTETS

Disassembly of section .text:

08000194 <__do_global_dtors_aux>:
 8000194:	b510      	push	{r4, lr}
 8000196:	4c05      	ldr	r4, [pc, #20]	; (80001ac <__do_global_dtors_aux+0x18>)
 8000198:	7823      	ldrb	r3, [r4, #0]
 800019a:	b933      	cbnz	r3, 80001aa <__do_global_dtors_aux+0x16>
 800019c:	4b04      	ldr	r3, [pc, #16]	; (80001b0 <__do_global_dtors_aux+0x1c>)
 800019e:	b113      	cbz	r3, 80001a6 <__do_global_dtors_aux+0x12>
 80001a0:	4804      	ldr	r0, [pc, #16]	; (80001b4 <__do_global_dtors_aux+0x20>)
 80001a2:	f3af 8000 	nop.w
 80001a6:	2301      	movs	r3, #1
 80001a8:	7023      	strb	r3, [r4, #0]
 80001aa:	bd10      	pop	{r4, pc}
 80001ac:	20000040 	.word	0x20000040
 80001b0:	00000000 	.word	0x00000000
 80001b4:	080003ac 	.word	0x080003ac

080001b8 <frame_dummy>:
 80001b8:	b508      	push	{r3, lr}
 80001ba:	4b03      	ldr	r3, [pc, #12]	; (80001c8 <frame_dummy+0x10>)
 80001bc:	b11b      	cbz	r3, 80001c6 <frame_dummy+0xe>
 80001be:	4903      	ldr	r1, [pc, #12]	; (80001cc <frame_dummy+0x14>)
 80001c0:	4803      	ldr	r0, [pc, #12]	; (80001d0 <frame_dummy+0x18>)
 80001c2:	f3af 8000 	nop.w
 80001c6:	bd08      	pop	{r3, pc}
 80001c8:	00000000 	.word	0x00000000
 80001cc:	20000044 	.word	0x20000044
 80001d0:	080003ac 	.word	0x080003ac

080001d4 <enable_peripheral_clocks>:

@ function to enable the clocks for the peripherals we could be using (A, B, C, D and E)
enable_peripheral_clocks:

	@ load the address of the RCC address boundary (for enabling the IO clock)
	LDR R0, =RCC
 80001d4:	4847      	ldr	r0, [pc, #284]	; (80002f4 <delay_inner+0x8>)

	@ enable all of the GPIO peripherals in AHBENR
	LDR R1, [R0, #AHBENR]
 80001d6:	6941      	ldr	r1, [r0, #20]
	ORR R1, 1 << GPIOE_ENABLE | 1 << GPIOD_ENABLE | 1 << GPIOC_ENABLE | 1 << GPIOB_ENABLE | 1 << GPIOA_ENABLE  @ enable GPIO
 80001d8:	f441 1178 	orr.w	r1, r1, #4063232	; 0x3e0000
	STR R1, [R0, #AHBENR]
 80001dc:	6141      	str	r1, [r0, #20]

	BX LR @ return
 80001de:	4770      	bx	lr

080001e0 <initialise_discovery_board>:
@ function to enable a UART device - this requires:
@  setting the alternate pin functions for the UART (select the pins you want to use)
@
@ BAUD rate needs to change depending on whether it is 8MHz (external clock) or 24MHz (our PLL setting)
initialise_discovery_board:
	LDR R0, =GPIOE 	@ load the address of the GPIOE register into R0
 80001e0:	4845      	ldr	r0, [pc, #276]	; (80002f8 <delay_inner+0xc>)
	LDR R1, =0x5555  @ load the binary value of 01 (OUTPUT) for each port in the upper two bytes
 80001e2:	f245 5155 	movw	r1, #21845	; 0x5555
					 @ as 0x5555 = 01010101 01010101
	STRH R1, [R0, #MODER + 2]   @ store the new register values in the top half word representing
 80001e6:	8041      	strh	r1, [r0, #2]
								@ the MODER settings for pe8-15
	BX LR @ return from function call
 80001e8:	4770      	bx	lr

080001ea <enable_uart>:
enable_uart:

	@make a note about the different ways that we set specific bits in this configuration section

	@ select which UART you want to enable
	LDR R0, =GPIOC
 80001ea:	4844      	ldr	r0, [pc, #272]	; (80002fc <delay_inner+0x10>)

	@ set the alternate function for the UART pins (what ever you have selected)
	LDR R1, =0x77
 80001ec:	f04f 0177 	mov.w	r1, #119	; 0x77
	STRB R1, [R0, AFRL + 2]
 80001f0:	f880 1022 	strb.w	r1, [r0, #34]	; 0x22

	@ modify the mode of the GPIO pins you want to use to enable 'alternate function mode'
	LDR R1, [R0, GPIO_MODER]
 80001f4:	6801      	ldr	r1, [r0, #0]
	ORR R1, 0xA00 @ Mask for pins to change to 'alternate function mode'
 80001f6:	f441 6120 	orr.w	r1, r1, #2560	; 0xa00
	STR R1, [R0, GPIO_MODER]
 80001fa:	6001      	str	r1, [r0, #0]

	@ modify the speed of the GPIO pins you want to use to enable 'high speed'
	LDR R1, [R0, GPIO_OSPEEDR]
 80001fc:	6881      	ldr	r1, [r0, #8]
	ORR R1, 0xF00 @ Mask for pins to be set as high speed
 80001fe:	f441 6170 	orr.w	r1, r1, #3840	; 0xf00
	STR R1, [R0, GPIO_OSPEEDR]
 8000202:	6081      	str	r1, [r0, #8]

	@ Set the enable bit for the specific UART you want to use
	@ Note: this might be in APB1ENR or APB2ENR
	@ you can find this out by looking in the datasheet
	LDR R0, =RCC @ the base address for the register to turn clocks on/off
 8000204:	483b      	ldr	r0, [pc, #236]	; (80002f4 <delay_inner+0x8>)
	LDR R1, [R0, #APB2ENR] @ load the original value from the enable register
 8000206:	6981      	ldr	r1, [r0, #24]
	ORR R1, 1 << UART_EN  @ apply the bit mask to the previous values of the enable the UART
 8000208:	f441 4180 	orr.w	r1, r1, #16384	; 0x4000
	STR R1, [R0, #APB2ENR] @ store the modified enable register values back to RCC
 800020c:	6181      	str	r1, [r0, #24]

	@ this is the baud rate
	MOV R1, #0x46 @ from our earlier calculations (for 8MHz), store this in register R1
 800020e:	f04f 0146 	mov.w	r1, #70	; 0x46
	LDR R0, =UART @ the base address for the register to turn clocks on/off
 8000212:	483b      	ldr	r0, [pc, #236]	; (8000300 <delay_inner+0x14>)
	STRH R1, [R0, #USART_BRR] @ store this value directly in the first half word (16 bits) of
 8000214:	8181      	strh	r1, [r0, #12]
							  	 @ the baud rate register

	@ we want to set a few things here, lets define their bit positions to make it more readable
	LDR R0, =UART @ the base address for the register to set up the specified UART
 8000216:	483a      	ldr	r0, [pc, #232]	; (8000300 <delay_inner+0x14>)
	LDR R1, [R0, #USART_CR1] @ load the original value from the enable register
 8000218:	6801      	ldr	r1, [r0, #0]
	ORR R1, 1 << UART_TE | 1 << UART_RE | 1 << UART_UE @ make a bit mask with a '1' for the bits to enable,
 800021a:	f041 010d 	orr.w	r1, r1, #13
													   @ apply the bit mask to the previous values of the enable register

	STR R1, [R0, #USART_CR1] @ store the modified enable register values back to RCC
 800021e:	6001      	str	r1, [r0, #0]

	BX LR @ return
 8000220:	4770      	bx	lr

08000222 <change_clock_speed>:

@ set the PLL (clocks are described in page 125 of the large manual)
change_clock_speed:
@ step 1, set clock to HSE (the external clock)
	@ enable HSE (and wait for complete)
	LDR R0, =RCC @ the base address for the register to turn clocks on/off
 8000222:	4834      	ldr	r0, [pc, #208]	; (80002f4 <delay_inner+0x8>)
	LDR R1, [R0, #RCC_CR] @ load the original value from the enable register
 8000224:	6801      	ldr	r1, [r0, #0]
	LDR R2, =1 << HSEBYP | 1 << HSEON @ make a bit mask with a '1' in the 0th bit position
 8000226:	f44f 22a0 	mov.w	r2, #327680	; 0x50000
	ORR R1, R2 @ apply the bit mask to the previous values of the enable register
 800022a:	ea41 0102 	orr.w	r1, r1, r2
	STR R1, [R0, #RCC_CR] @ store the modified enable register values back to RCC
 800022e:	6001      	str	r1, [r0, #0]

08000230 <wait_for_HSERDY>:

	@ wait for the changes to be completed
wait_for_HSERDY:
	LDR R1, [R0, #RCC_CR] @ load the original value from the enable register
 8000230:	6801      	ldr	r1, [r0, #0]
	TST R1, 1 << HSERDY @ Test the HSERDY bit (check if it is 1)
 8000232:	f411 3f00 	tst.w	r1, #131072	; 0x20000
	BEQ wait_for_HSERDY
 8000236:	d0fb      	beq.n	8000230 <wait_for_HSERDY>

@ step 2, now the clock is HSE, we are allowed to switch to PLL
	@ clock is set to External clock (external crystal) - 8MHz, can enable the PLL now
	LDR R1, [R0, #RCC_CFGR] @ load the original value from the enable register
 8000238:	6841      	ldr	r1, [r0, #4]
	LDR R2, =1 << 20 | 1 << PLLSRC | 1 << 22 @ the last term is for the USB prescaler to be 1
 800023a:	f44f 02a2 	mov.w	r2, #5308416	; 0x510000
	ORR R1, R2  @ set PLLSRC (use PLL) and PLLMUL to 0100 - bit 20 is 1 (set speed as 6x faster)
 800023e:	ea41 0102 	orr.w	r1, r1, r2
				@ see page 140 of the large manual for options
				@ NOTE: cannot go faster than 72MHz)
	STR R1, [R0, #RCC_CFGR] @ store the modified enable register values back to RCC
 8000242:	6041      	str	r1, [r0, #4]

	@ enable PLL (and wait for complete)
	LDR R0, =RCC @ the base address for the register to turn clocks on/off
 8000244:	482b      	ldr	r0, [pc, #172]	; (80002f4 <delay_inner+0x8>)
	LDR R1, [R0, #RCC_CR] @ load the original value from the enable register
 8000246:	6801      	ldr	r1, [r0, #0]
	ORR R1, 1 << PLLON @ apply the bit mask to turn on the PLL
 8000248:	f041 7180 	orr.w	r1, r1, #16777216	; 0x1000000
	STR R1, [R0, #RCC_CR] @ store the modified enable register values back to RCC
 800024c:	6001      	str	r1, [r0, #0]

0800024e <wait_for_PLLRDY>:

wait_for_PLLRDY:
	LDR R1, [R0, #RCC_CR] @ load the original value from the enable register
 800024e:	6801      	ldr	r1, [r0, #0]
	TST R1, 1 << PLLRDY @ Test the HSERDY bit (check if it is 1)
 8000250:	f011 7f00 	tst.w	r1, #33554432	; 0x2000000
	BEQ wait_for_PLLRDY
 8000254:	d0fb      	beq.n	800024e <wait_for_PLLRDY>

@ step 3, PLL is ready, switch over the system clock to PLL
	LDR R0, =RCC  @ load the address of the RCC address boundary (for enabling the IO clock)
 8000256:	4827      	ldr	r0, [pc, #156]	; (80002f4 <delay_inner+0x8>)
	LDR R1, [R0, #RCC_CFGR]  @ load the current value of the peripheral clock registers
 8000258:	6841      	ldr	r1, [r0, #4]
	MOV R2, 1 << 10 | 1 << 1  @ some more settings - bit 1 (SW = 10)  - PLL set as system clock
 800025a:	f240 4202 	movw	r2, #1026	; 0x402
									   @ bit 10 (HCLK=100) divided by 2 (clock is faster, need to prescale for peripherals)
	ORR R1, R2	@ Set the values of these two clocks (turn them on)
 800025e:	ea41 0102 	orr.w	r1, r1, r2
	STR R1, [R0, #RCC_CFGR]  @ store the modified register back to the submodule
 8000262:	6041      	str	r1, [r0, #4]

	LDR R1, [R0, #RCC_CFGR]  @ load the current value of the peripheral clock registers
 8000264:	6841      	ldr	r1, [r0, #4]
	ORR R1, 1 << USBPRE	@ Set the USB prescaler (when PLL is on for the USB)
 8000266:	f441 0180 	orr.w	r1, r1, #4194304	; 0x400000
	STR R1, [R0, #RCC_CFGR]  @ store the modified register back to the submodule
 800026a:	6041      	str	r1, [r0, #4]

	BX LR @ return
 800026c:	4770      	bx	lr

0800026e <initialise_power>:

@ initialise the power systems on the microcontroller
@ PWREN (enable power to the clock), SYSCFGEN system clock enable
initialise_power:

	LDR R0, =RCC @ the base address for the register to turn clocks on/off
 800026e:	4821      	ldr	r0, [pc, #132]	; (80002f4 <delay_inner+0x8>)

	@ enable clock power in APB1ENR
	LDR R1, [R0, #APB1ENR]
 8000270:	69c1      	ldr	r1, [r0, #28]
	ORR R1, 1 << PWREN @ apply the bit mask for power enable
 8000272:	f041 5180 	orr.w	r1, r1, #268435456	; 0x10000000
	STR R1, [R0, #APB1ENR]
 8000276:	61c1      	str	r1, [r0, #28]

	@ enable clock config in APB2ENR
	LDR R1, [R0, #APB2ENR]
 8000278:	6981      	ldr	r1, [r0, #24]
	ORR R1, 1 << SYSCFGEN @ apply the bit mask to allow clock configuration
 800027a:	f041 0101 	orr.w	r1, r1, #1
	STR R1, [R0, #APB2ENR]
 800027e:	6181      	str	r1, [r0, #24]

	BX LR @ return
 8000280:	4770      	bx	lr

08000282 <main>:


@ this is the entry function called from the c file
main:

	BL initialise_power
 8000282:	f7ff fff4 	bl	800026e <initialise_power>
	BL enable_peripheral_clocks
 8000286:	f7ff ffa5 	bl	80001d4 <enable_peripheral_clocks>
	BL initialise_discovery_board
 800028a:	f7ff ffa9 	bl	80001e0 <initialise_discovery_board>
	BL enable_uart
 800028e:	f7ff ffac 	bl	80001ea <enable_uart>



	@ To read in data, we need to use a memory buffer to store the incoming bytes
	@ Get pointers to the buffer and terminating character
	LDR R1, =incoming_buffer
 8000292:	491c      	ldr	r1, [pc, #112]	; (8000304 <delay_inner+0x18>)
	LDR R2, =user_defined_terminating_character
 8000294:	4a1c      	ldr	r2, [pc, #112]	; (8000308 <delay_inner+0x1c>)

	@ dereference the terminating character, store it in R2
	LDRB R2, [R2]
 8000296:	7812      	ldrb	r2, [r2, #0]

	@ Keep a pointer that counts how many bytes have been received
	MOV R3, #0x00
 8000298:	f04f 0300 	mov.w	r3, #0

0800029c <loop_forever>:


@ continue reading forever (NOTE: eventually it will run out of memory as we don't have a big buffer)
loop_forever:

	LDR R0, =UART @ the base address for the register to set up UART
 800029c:	4818      	ldr	r0, [pc, #96]	; (8000300 <delay_inner+0x14>)

	LDR R4, =UART @ the base address for the register to set up UART
 800029e:	4c18      	ldr	r4, [pc, #96]	; (8000300 <delay_inner+0x14>)
	LDR R5, [R4, USART_ISR] @ load the status of the UART
 80002a0:	69e5      	ldr	r5, [r4, #28]

	TST R5, 1 << UART_ORE | 1 << UART_FE  @ 'AND' the current status with the bit mask that we are interested in
 80002a2:	f015 0f0a 	tst.w	r5, #10
						   @ NOTE, the ANDS is used so that if the result is '0' the z register flag is set

	BNE clear_error
 80002a6:	d10f      	bne.n	80002c8 <clear_error>

	TST R5, 1 << UART_RXNE @ 'AND' the current status with the bit mask that we are interested in
 80002a8:	f015 0f20 	tst.w	r5, #32
							  @ NOTE, the ANDS is used so that if the result is '0' the z register flag is set

	BEQ loop_forever @ loop back if there was no character to read
 80002ac:	d0f6      	beq.n	800029c <loop_forever>

	LDRB R6, [R4, USART_RDR] @ load the lowest byte (RDR bits [0:7] for an 8 bit read)
 80002ae:	f894 6024 	ldrb.w	r6, [r4, #36]	; 0x24

	STRB R6, [R1, R3]
 80002b2:	54ce      	strb	r6, [r1, r3]
	ADD R3, #1
 80002b4:	f103 0301 	add.w	r3, r3, #1

	CMP R2, R6
 80002b8:	42b2      	cmp	r2, r6
	BNE no_reset
 80002ba:	d100      	bne.n	80002be <no_reset>

	B tx_uart
 80002bc:	e009      	b.n	80002d2 <tx_uart>

080002be <no_reset>:

no_reset:


	@ load the status of the UART
	LDR R5, [R4, USART_RQR]
 80002be:	69a5      	ldr	r5, [r4, #24]
	ORR R5, 1 << UART_RXFRQ
 80002c0:	f045 0508 	orr.w	r5, r5, #8
	STR R5, [R4, USART_RQR]
 80002c4:	61a5      	str	r5, [r4, #24]

	BGT loop_forever
 80002c6:	dce9      	bgt.n	800029c <loop_forever>

080002c8 <clear_error>:


clear_error:

	@ Clear the overrun/frame error flag in the register USART_ICR (see page 897)
	LDR R5, [R4, USART_ICR]
 80002c8:	6a25      	ldr	r5, [r4, #32]
	ORR R5, 1 << UART_ORECF | 1 << UART_FECF @ clear the flags (by setting flags to 1)
 80002ca:	f045 0508 	orr.w	r5, r5, #8
	STR R5, [R4, USART_ICR]
 80002ce:	6225      	str	r5, [r4, #32]
	B loop_forever
 80002d0:	e7e4      	b.n	800029c <loop_forever>

080002d2 <tx_uart>:


tx_uart:

	LDR R5, [R0, USART_ISR] @ load the status of the UART
 80002d2:	69c5      	ldr	r5, [r0, #28]
	ANDS R5, 1 << UART_TXE  @ 'AND' the current status with the bit mask that we are interested in
 80002d4:	f015 0580 	ands.w	r5, r5, #128	; 0x80
						    @ NOTE, the ANDS is used so that if the result is '0' the z register flag is set

	@ loop back to check status again if the flag indicates there is no byte waiting
	BEQ tx_uart
 80002d8:	d0fb      	beq.n	80002d2 <tx_uart>

	@ load the next value in the string into the transmit buffer for the specified UART
	LDRB R7, [R1], #1
 80002da:	f811 7b01 	ldrb.w	r7, [r1], #1

	@ check terminating pointer
	CMP R7, R2
 80002de:	4297      	cmp	r7, r2
	BEQ loop_forever @ end transmit and wating for next trans
 80002e0:	d0dc      	beq.n	800029c <loop_forever>
	STRB R7, [R0, USART_TDR] @Shifts to the next byte
 80002e2:	f880 7028 	strb.w	r7, [r0, #40]	; 0x28



	@ loop back to the start
	B tx_uart
 80002e6:	e7f4      	b.n	80002d2 <tx_uart>

080002e8 <delay_loop>:


delay_loop:
	LDR R9, =0xfffff
 80002e8:	f8df 9020 	ldr.w	r9, [pc, #32]	; 800030c <delay_inner+0x20>

080002ec <delay_inner>:

delay_inner:
	@ notice the SUB has an S on the end, this means it alters the condition register
	@ and can be used to make a branching decision.
	SUBS R9, #1
 80002ec:	f1b9 0901 	subs.w	r9, r9, #1
	BGT delay_inner
 80002f0:	dcfc      	bgt.n	80002ec <delay_inner>
	BX LR @ return from function call
 80002f2:	4770      	bx	lr
	LDR R0, =RCC
 80002f4:	40021000 	.word	0x40021000
	LDR R0, =GPIOE 	@ load the address of the GPIOE register into R0
 80002f8:	48001000 	.word	0x48001000
	LDR R0, =GPIOC
 80002fc:	48000800 	.word	0x48000800
	LDR R0, =UART @ the base address for the register to turn clocks on/off
 8000300:	40013800 	.word	0x40013800
	LDR R1, =incoming_buffer
 8000304:	20000000 	.word	0x20000000
	LDR R2, =user_defined_terminating_character
 8000308:	2000003e 	.word	0x2000003e
	LDR R9, =0xfffff
 800030c:	000fffff 	.word	0x000fffff

08000310 <Reset_Handler>:

  .section .text.Reset_Handler
  .weak Reset_Handler
  .type Reset_Handler, %function
Reset_Handler:
  ldr   r0, =_estack
 8000310:	480d      	ldr	r0, [pc, #52]	; (8000348 <LoopForever+0x2>)
  mov   sp, r0          /* set stack pointer */
 8000312:	4685      	mov	sp, r0
/* Call the clock system initialization function.*/
  bl  SystemInit
 8000314:	f3af 8000 	nop.w

/* Copy the data segment initializers from flash to SRAM */
  ldr r0, =_sdata
 8000318:	480c      	ldr	r0, [pc, #48]	; (800034c <LoopForever+0x6>)
  ldr r1, =_edata
 800031a:	490d      	ldr	r1, [pc, #52]	; (8000350 <LoopForever+0xa>)
  ldr r2, =_sidata
 800031c:	4a0d      	ldr	r2, [pc, #52]	; (8000354 <LoopForever+0xe>)
  movs r3, #0
 800031e:	2300      	movs	r3, #0
  b LoopCopyDataInit
 8000320:	e002      	b.n	8000328 <LoopCopyDataInit>

08000322 <CopyDataInit>:

CopyDataInit:
  ldr r4, [r2, r3]
 8000322:	58d4      	ldr	r4, [r2, r3]
  str r4, [r0, r3]
 8000324:	50c4      	str	r4, [r0, r3]
  adds r3, r3, #4
 8000326:	3304      	adds	r3, #4

08000328 <LoopCopyDataInit>:

LoopCopyDataInit:
  adds r4, r0, r3
 8000328:	18c4      	adds	r4, r0, r3
  cmp r4, r1
 800032a:	428c      	cmp	r4, r1
  bcc CopyDataInit
 800032c:	d3f9      	bcc.n	8000322 <CopyDataInit>

/* Zero fill the bss segment. */
  ldr r2, =_sbss
 800032e:	4a0a      	ldr	r2, [pc, #40]	; (8000358 <LoopForever+0x12>)
  ldr r4, =_ebss
 8000330:	4c0a      	ldr	r4, [pc, #40]	; (800035c <LoopForever+0x16>)
  movs r3, #0
 8000332:	2300      	movs	r3, #0
  b LoopFillZerobss
 8000334:	e001      	b.n	800033a <LoopFillZerobss>

08000336 <FillZerobss>:

FillZerobss:
  str  r3, [r2]
 8000336:	6013      	str	r3, [r2, #0]
  adds r2, r2, #4
 8000338:	3204      	adds	r2, #4

0800033a <LoopFillZerobss>:

LoopFillZerobss:
  cmp r2, r4
 800033a:	42a2      	cmp	r2, r4
  bcc FillZerobss
 800033c:	d3fb      	bcc.n	8000336 <FillZerobss>

/* Call static constructors */
  bl __libc_init_array
 800033e:	f000 f811 	bl	8000364 <__libc_init_array>
/* Call the application's entry point.*/
  bl main
 8000342:	f7ff ff9e 	bl	8000282 <main>

08000346 <LoopForever>:

LoopForever:
  b LoopForever
 8000346:	e7fe      	b.n	8000346 <LoopForever>
  ldr   r0, =_estack
 8000348:	2000a000 	.word	0x2000a000
  ldr r0, =_sdata
 800034c:	20000000 	.word	0x20000000
  ldr r1, =_edata
 8000350:	20000040 	.word	0x20000040
  ldr r2, =_sidata
 8000354:	080003cc 	.word	0x080003cc
  ldr r2, =_sbss
 8000358:	20000040 	.word	0x20000040
  ldr r4, =_ebss
 800035c:	2000005c 	.word	0x2000005c

08000360 <ADC1_2_IRQHandler>:
 * @retval : None
*/
  .section .text.Default_Handler,"ax",%progbits
Default_Handler:
Infinite_Loop:
  b Infinite_Loop
 8000360:	e7fe      	b.n	8000360 <ADC1_2_IRQHandler>
	...

08000364 <__libc_init_array>:
 8000364:	b570      	push	{r4, r5, r6, lr}
 8000366:	4d0d      	ldr	r5, [pc, #52]	; (800039c <__libc_init_array+0x38>)
 8000368:	4c0d      	ldr	r4, [pc, #52]	; (80003a0 <__libc_init_array+0x3c>)
 800036a:	1b64      	subs	r4, r4, r5
 800036c:	10a4      	asrs	r4, r4, #2
 800036e:	2600      	movs	r6, #0
 8000370:	42a6      	cmp	r6, r4
 8000372:	d109      	bne.n	8000388 <__libc_init_array+0x24>
 8000374:	4d0b      	ldr	r5, [pc, #44]	; (80003a4 <__libc_init_array+0x40>)
 8000376:	4c0c      	ldr	r4, [pc, #48]	; (80003a8 <__libc_init_array+0x44>)
 8000378:	f000 f818 	bl	80003ac <_init>
 800037c:	1b64      	subs	r4, r4, r5
 800037e:	10a4      	asrs	r4, r4, #2
 8000380:	2600      	movs	r6, #0
 8000382:	42a6      	cmp	r6, r4
 8000384:	d105      	bne.n	8000392 <__libc_init_array+0x2e>
 8000386:	bd70      	pop	{r4, r5, r6, pc}
 8000388:	f855 3b04 	ldr.w	r3, [r5], #4
 800038c:	4798      	blx	r3
 800038e:	3601      	adds	r6, #1
 8000390:	e7ee      	b.n	8000370 <__libc_init_array+0xc>
 8000392:	f855 3b04 	ldr.w	r3, [r5], #4
 8000396:	4798      	blx	r3
 8000398:	3601      	adds	r6, #1
 800039a:	e7f2      	b.n	8000382 <__libc_init_array+0x1e>
 800039c:	080003c4 	.word	0x080003c4
 80003a0:	080003c4 	.word	0x080003c4
 80003a4:	080003c4 	.word	0x080003c4
 80003a8:	080003c8 	.word	0x080003c8

080003ac <_init>:
 80003ac:	b5f8      	push	{r3, r4, r5, r6, r7, lr}
 80003ae:	bf00      	nop
 80003b0:	bcf8      	pop	{r3, r4, r5, r6, r7}
 80003b2:	bc08      	pop	{r3}
 80003b4:	469e      	mov	lr, r3
 80003b6:	4770      	bx	lr

080003b8 <_fini>:
 80003b8:	b5f8      	push	{r3, r4, r5, r6, r7, lr}
 80003ba:	bf00      	nop
 80003bc:	bcf8      	pop	{r3, r4, r5, r6, r7}
 80003be:	bc08      	pop	{r3}
 80003c0:	469e      	mov	lr, r3
 80003c2:	4770      	bx	lr
