
Exercise_5_r.elf:     file format elf32-littlearm

Sections:
Idx Name          Size      VMA       LMA       File off  Algn
  0 .isr_vector   00000194  08000000  08000000  00001000  2**0
                  CONTENTS, ALLOC, LOAD, READONLY, DATA
  1 .text         00000370  08000194  08000194  00001194  2**2
                  CONTENTS, ALLOC, LOAD, READONLY, CODE
  2 .rodata       00000000  08000504  08000504  000020c8  2**0
                  CONTENTS, ALLOC, LOAD, DATA
  3 .ARM.extab    00000000  08000504  08000504  000020c8  2**0
                  CONTENTS, READONLY
  4 .ARM          00000000  08000504  08000504  000020c8  2**0
                  CONTENTS, READONLY
  5 .preinit_array 00000000  08000504  08000504  000020c8  2**0
                  CONTENTS, ALLOC, LOAD, DATA
  6 .init_array   00000004  08000504  08000504  00001504  2**2
                  CONTENTS, ALLOC, LOAD, READONLY, DATA
  7 .fini_array   00000004  08000508  08000508  00001508  2**2
                  CONTENTS, ALLOC, LOAD, READONLY, DATA
  8 .data         000000c8  20000000  0800050c  00002000  2**2
                  CONTENTS, ALLOC, LOAD, DATA
  9 .ccmram       00000000  10000000  10000000  000020c8  2**0
                  CONTENTS
 10 .bss          0000001c  200000c8  200000c8  000020c8  2**2
                  ALLOC
 11 ._user_heap_stack 00000604  200000e4  200000e4  000020c8  2**0
                  ALLOC
 12 .ARM.attributes 00000030  00000000  00000000  000020c8  2**0
                  CONTENTS, READONLY
 13 .debug_line   000001d6  00000000  00000000  000020f8  2**0
                  CONTENTS, READONLY, DEBUGGING, OCTETS
 14 .debug_line_str 000000a3  00000000  00000000  000022ce  2**0
                  CONTENTS, READONLY, DEBUGGING, OCTETS
 15 .debug_info   00000055  00000000  00000000  00002371  2**0
                  CONTENTS, READONLY, DEBUGGING, OCTETS
 16 .debug_abbrev 00000038  00000000  00000000  000023c6  2**0
                  CONTENTS, READONLY, DEBUGGING, OCTETS
 17 .debug_aranges 00000048  00000000  00000000  00002400  2**3
                  CONTENTS, READONLY, DEBUGGING, OCTETS
 18 .debug_str    0000009e  00000000  00000000  00002448  2**0
                  CONTENTS, READONLY, DEBUGGING, OCTETS
 19 .debug_rnglists 00000019  00000000  00000000  000024e6  2**0
                  CONTENTS, READONLY, DEBUGGING, OCTETS
 20 .debug_frame  0000002c  00000000  00000000  00002500  2**2
                  CONTENTS, READONLY, DEBUGGING, OCTETS

Disassembly of section .text:

08000194 <__do_global_dtors_aux>:
 8000194:	b510      	push	{r4, lr}
 8000196:	4c05      	ldr	r4, [pc, #20]	@ (80001ac <__do_global_dtors_aux+0x18>)
 8000198:	7823      	ldrb	r3, [r4, #0]
 800019a:	b933      	cbnz	r3, 80001aa <__do_global_dtors_aux+0x16>
 800019c:	4b04      	ldr	r3, [pc, #16]	@ (80001b0 <__do_global_dtors_aux+0x1c>)
 800019e:	b113      	cbz	r3, 80001a6 <__do_global_dtors_aux+0x12>
 80001a0:	4804      	ldr	r0, [pc, #16]	@ (80001b4 <__do_global_dtors_aux+0x20>)
 80001a2:	f3af 8000 	nop.w
 80001a6:	2301      	movs	r3, #1
 80001a8:	7023      	strb	r3, [r4, #0]
 80001aa:	bd10      	pop	{r4, pc}
 80001ac:	200000c8 	.word	0x200000c8
 80001b0:	00000000 	.word	0x00000000
 80001b4:	080004ec 	.word	0x080004ec

080001b8 <frame_dummy>:
 80001b8:	b508      	push	{r3, lr}
 80001ba:	4b03      	ldr	r3, [pc, #12]	@ (80001c8 <frame_dummy+0x10>)
 80001bc:	b11b      	cbz	r3, 80001c6 <frame_dummy+0xe>
 80001be:	4903      	ldr	r1, [pc, #12]	@ (80001cc <frame_dummy+0x14>)
 80001c0:	4803      	ldr	r0, [pc, #12]	@ (80001d0 <frame_dummy+0x18>)
 80001c2:	f3af 8000 	nop.w
 80001c6:	bd08      	pop	{r3, pc}
 80001c8:	00000000 	.word	0x00000000
 80001cc:	200000cc 	.word	0x200000cc
 80001d0:	080004ec 	.word	0x080004ec

080001d4 <lower_conversion_main>:
.text

@ Initialises the input parameters and chooses whether to convert to upper or lower.
lower_conversion_main:

	LDR R12, =0x00 @The counter to the current place in the string.
 80001d4:	f04f 0c00 	mov.w	ip, #0

080001d8 <conversion_to_lower_loop>:

@ Traverses the string characters, and sends upper case letters to be converted to lower case.
conversion_to_lower_loop:

	LDRB R4, [R1, R12] @This gets the current letter from the input string into the fourth register.
 80001d8:	f811 400c 	ldrb.w	r4, [r1, ip]

	CMP R4, R2 @Checks for the termination character.
 80001dc:	4294      	cmp	r4, r2
	BEQ lower_return @Skips to the finished string block.
 80001de:	d00d      	beq.n	80001fc <lower_return>

	SUB R5, R4, #65 @Finds where the value would be in ASCII if a lower conversion is to occur.
 80001e0:	f1a4 0541 	sub.w	r5, r4, #65	@ 0x41
	CMP R5, 25 @Checks if the character is within the uppercase ASCII range. 25 is used because it is the range
 80001e4:	2d19      	cmp	r5, #25
			   @of ASCII characters to convert with the alphabet.
	BLS conversion_to_lower @If the compare was less than or equal to 25, the character is taken to the lower
 80001e6:	d902      	bls.n	80001ee <conversion_to_lower>
	 						@conversion block.

	ADD R12, #1 @Increments the index.
 80001e8:	f10c 0c01 	add.w	ip, ip, #1

	B conversion_to_lower_loop @Starts the process for the next character.
 80001ec:	e7f4      	b.n	80001d8 <conversion_to_lower_loop>

080001ee <conversion_to_lower>:

@ Converts an upper case letter to lower case, and leaves lower case letters as is.
conversion_to_lower:

	ADD R4, #32 @32 is the distance between upper and lower case in ASCII.
 80001ee:	f104 0420 	add.w	r4, r4, #32
	STRB R4, [R1, R12] @Storing the converted character (R4) into the index (R3) of the input string (R1).
 80001f2:	f801 400c 	strb.w	r4, [r1, ip]

	ADD R12, #1 @Increments the index.
 80001f6:	f10c 0c01 	add.w	ip, ip, #1
	B conversion_to_lower_loop @Starts the process for the next character.
 80001fa:	e7ed      	b.n	80001d8 <conversion_to_lower_loop>

080001fc <lower_return>:

@Lower conversion complete, return back for LED process.
lower_return:

	BX LR
 80001fc:	4770      	bx	lr

080001fe <enable_timer2_clock>:
#include "definitions.s"


enable_timer2_clock:

	LDR R0, =RCC	@ load the base address for the timer
 80001fe:	4889      	ldr	r0, [pc, #548]	@ (8000424 <loop_forever_reset+0x8>)
	LDR R1, [R0, APB1ENR] 	@ load the peripheral clock control register
 8000200:	69c1      	ldr	r1, [r0, #28]
	ORR R1, 1 << TIM2EN @ store a 1 in bit for the TIM2 enable flag
 8000202:	f041 0101 	orr.w	r1, r1, #1
	STR R1, [R0, APB1ENR] @ enable the timer
 8000206:	61c1      	str	r1, [r0, #28]
	BX LR @ return
 8000208:	4770      	bx	lr

0800020a <enable_peripheral_clocks>:

@ function to enable the clocks for the peripherals we could be using (A, B, C, D and E)
enable_peripheral_clocks:

	@ load the address of the RCC address boundary (for enabling the IO clock)
	LDR R0, =RCC
 800020a:	4886      	ldr	r0, [pc, #536]	@ (8000424 <loop_forever_reset+0x8>)

	@ enable all of the GPIO peripherals in AHBENR
	LDR R1, [R0, #AHBENR]
 800020c:	6941      	ldr	r1, [r0, #20]
	ORR R1, 1 << GPIOE_ENABLE | 1 << GPIOD_ENABLE | 1 << GPIOC_ENABLE | 1 << GPIOB_ENABLE | 1 << GPIOA_ENABLE  @ enable GPIO
 800020e:	f441 1178 	orr.w	r1, r1, #4063232	@ 0x3e0000
	STR R1, [R0, #AHBENR]
 8000212:	6141      	str	r1, [r0, #20]

	BX LR @ return
 8000214:	4770      	bx	lr

08000216 <trigger_prescaler>:


trigger_prescaler:
	@ store a value for the prescaler
	LDR R0, =TIM2	@ load the base address for the timer
 8000216:	f04f 4080 	mov.w	r0, #1073741824	@ 0x40000000

	LDR R1, =500000 @ make the timer overflow after counting to 500000
 800021a:	4983      	ldr	r1, [pc, #524]	@ (8000428 <loop_forever_reset+0xc>)
	STR R1, [R0, TIM_ARR] @ set the ARR register
 800021c:	62c1      	str	r1, [r0, #44]	@ 0x2c

	LDR R8, =0x00
 800021e:	f04f 0800 	mov.w	r8, #0
	STR R8, [R0, TIM_CNT] @ reset the clock
 8000222:	f8c0 8024 	str.w	r8, [r0, #36]	@ 0x24
	NOP
 8000226:	bf00      	nop
	NOP
 8000228:	bf00      	nop
	BX LR
 800022a:	4770      	bx	lr

0800022c <initialise_discovery_board>:

@ function to enable a UART device - this requires:
@  setting the alternate pin functions for the UART (select the pins you want to use)
@ BAUD rate needs to change depending on whether it is 8MHz (external clock) or 24MHz (our PLL setting)
initialise_discovery_board:
	LDR R0, =GPIOE 	@ load the address of the GPIOE register into R0
 800022c:	487f      	ldr	r0, [pc, #508]	@ (800042c <loop_forever_reset+0x10>)
	LDR R1, =0x5555  @ load the binary value of 01 (OUTPUT) for each port in the upper two bytes
 800022e:	f245 5155 	movw	r1, #21845	@ 0x5555
					 @ as 0x5555 = 01010101 01010101
	STRH R1, [R0, #MODER + 2]   @ store the new register values in the top half word representing
 8000232:	8041      	strh	r1, [r0, #2]
								@ the MODER settings for pe8-15
	BX LR @ return from function call
 8000234:	4770      	bx	lr

08000236 <enable_uart5>:
enable_uart5:

	@make a note about the different ways that we set specific bits in this configuration section

	@ select which UART you want to enable
	LDR R0, =GPIOD
 8000236:	487e      	ldr	r0, [pc, #504]	@ (8000430 <loop_forever_reset+0x14>)

	@ set the alternate function for the UART pins (what ever you have selected)
	LDR R1, =0x05
 8000238:	f04f 0105 	mov.w	r1, #5
	STRB R1, [R0, AFRL + 1] @Should this be?
 800023c:	f880 1021 	strb.w	r1, [r0, #33]	@ 0x21

	@ modify the mode of the GPIO pins you want to use to enable 'alternate function mode'
	LDR R1, [R0, GPIO_MODER]
 8000240:	6801      	ldr	r1, [r0, #0]
	ORR R1, 0x20 @ Mask for pins to change to 'alternate function mode'
 8000242:	f041 0120 	orr.w	r1, r1, #32
	STR R1, [R0, GPIO_MODER]
 8000246:	6001      	str	r1, [r0, #0]

	@ modify the speed of the GPIO pins you want to use to enable 'high speed'
	LDR R1, [R0, GPIO_OSPEEDR]
 8000248:	6881      	ldr	r1, [r0, #8]
	ORR R1, 0x30 @ Mask for pins to be set as high speed
 800024a:	f041 0130 	orr.w	r1, r1, #48	@ 0x30
	STR R1, [R0, GPIO_OSPEEDR]
 800024e:	6081      	str	r1, [r0, #8]

	@ Set the enable bit for the specific UART you want to use
	@ Note: this might be in APB1ENR or APB2ENR
	@ you can find this out by looking in the datasheet
	LDR R0, =RCC @ the base address for the register to turn clocks on/off
 8000250:	4874      	ldr	r0, [pc, #464]	@ (8000424 <loop_forever_reset+0x8>)
	LDR R1, [R0, #APB1ENR] @ load the original value from the enable register
 8000252:	69c1      	ldr	r1, [r0, #28]
	ORR R1, 1 << UART5_EN  @ apply the bit mask to the previous values of the enable the UART
 8000254:	f441 1180 	orr.w	r1, r1, #1048576	@ 0x100000
	STR R1, [R0, #APB1ENR] @ store the modified enable register values back to RCC
 8000258:	61c1      	str	r1, [r0, #28]

	@ this is the baud rate
	MOV R1, #0x46 @ from our earlier calculations (for 8MHz), store this in register R1
 800025a:	f04f 0146 	mov.w	r1, #70	@ 0x46
	LDR R0, =UART5 @ the base address for the register to turn clocks on/off
 800025e:	4875      	ldr	r0, [pc, #468]	@ (8000434 <loop_forever_reset+0x18>)
	STRH R1, [R0, #USART_BRR] @ store this value directly in the first half word (16 bits) of
 8000260:	8181      	strh	r1, [r0, #12]
							  	 @ the baud rate register

	@ we want to set a few things here, lets define their bit positions to make it more readable
	LDR R0, =UART5 @ the base address for the register to set up the specified UART
 8000262:	4874      	ldr	r0, [pc, #464]	@ (8000434 <loop_forever_reset+0x18>)
	LDR R1, [R0, #USART_CR1] @ load the original value from the enable register
 8000264:	6801      	ldr	r1, [r0, #0]
	ORR R1, 1 << UART_TE | 1 << UART_RE | 1 << UART_UE @ make a bit mask with a '1' for the bits to enable,
 8000266:	f041 010d 	orr.w	r1, r1, #13
													   @ apply the bit mask to the previous values of the enable register

	STR R1, [R0, #USART_CR1] @ store the modified enable register values back to RCC
 800026a:	6001      	str	r1, [r0, #0]

	BX LR @ return
 800026c:	4770      	bx	lr

0800026e <change_clock_speed>:

@ set the PLL (clocks are described in page 125 of the large manual)
change_clock_speed:
@ step 1, set clock to HSE (the external clock)
	@ enable HSE (and wait for complete)
	LDR R0, =RCC @ the base address for the register to turn clocks on/off
 800026e:	486d      	ldr	r0, [pc, #436]	@ (8000424 <loop_forever_reset+0x8>)
	LDR R1, [R0, #RCC_CR] @ load the original value from the enable register
 8000270:	6801      	ldr	r1, [r0, #0]
	LDR R2, =1 << HSEBYP | 1 << HSEON @ make a bit mask with a '1' in the 0th bit position
 8000272:	f44f 22a0 	mov.w	r2, #327680	@ 0x50000
	ORR R1, R2 @ apply the bit mask to the previous values of the enable register
 8000276:	ea41 0102 	orr.w	r1, r1, r2
	STR R1, [R0, #RCC_CR] @ store the modified enable register values back to RCC
 800027a:	6001      	str	r1, [r0, #0]

0800027c <wait_for_HSERDY>:

	@ wait for the changes to be completed
wait_for_HSERDY:
	LDR R1, [R0, #RCC_CR] @ load the original value from the enable register
 800027c:	6801      	ldr	r1, [r0, #0]
	TST R1, 1 << HSERDY @ Test the HSERDY bit (check if it is 1)
 800027e:	f411 3f00 	tst.w	r1, #131072	@ 0x20000
	BEQ wait_for_HSERDY
 8000282:	d0fb      	beq.n	800027c <wait_for_HSERDY>

@ step 2, now the clock is HSE, we are allowed to switch to PLL
	@ clock is set to External clock (external crystal) - 8MHz, can enable the PLL now
	LDR R1, [R0, #RCC_CFGR] @ load the original value from the enable register
 8000284:	6841      	ldr	r1, [r0, #4]
	LDR R2, =1 << 20 | 1 << PLLSRC | 1 << 22 @ the last term is for the USB prescaler to be 1
 8000286:	f44f 02a2 	mov.w	r2, #5308416	@ 0x510000
	ORR R1, R2  @ set PLLSRC (use PLL) and PLLMUL to 0100 - bit 20 is 1 (set speed as 6x faster)
 800028a:	ea41 0102 	orr.w	r1, r1, r2
				@ see page 140 of the large manual for options
				@ NOTE: cannot go faster than 72MHz)
	STR R1, [R0, #RCC_CFGR] @ store the modified enable register values back to RCC
 800028e:	6041      	str	r1, [r0, #4]

	@ enable PLL (and wait for complete)
	LDR R0, =RCC @ the base address for the register to turn clocks on/off
 8000290:	4864      	ldr	r0, [pc, #400]	@ (8000424 <loop_forever_reset+0x8>)
	LDR R1, [R0, #RCC_CR] @ load the original value from the enable register
 8000292:	6801      	ldr	r1, [r0, #0]
	ORR R1, 1 << PLLON @ apply the bit mask to turn on the PLL
 8000294:	f041 7180 	orr.w	r1, r1, #16777216	@ 0x1000000
	STR R1, [R0, #RCC_CR] @ store the modified enable register values back to RCC
 8000298:	6001      	str	r1, [r0, #0]

0800029a <wait_for_PLLRDY>:

wait_for_PLLRDY:
	LDR R1, [R0, #RCC_CR] @ load the original value from the enable register
 800029a:	6801      	ldr	r1, [r0, #0]
	TST R1, 1 << PLLRDY @ Test the HSERDY bit (check if it is 1)
 800029c:	f011 7f00 	tst.w	r1, #33554432	@ 0x2000000
	BEQ wait_for_PLLRDY
 80002a0:	d0fb      	beq.n	800029a <wait_for_PLLRDY>

@ step 3, PLL is ready, switch over the system clock to PLL
	LDR R0, =RCC  @ load the address of the RCC address boundary (for enabling the IO clock)
 80002a2:	4860      	ldr	r0, [pc, #384]	@ (8000424 <loop_forever_reset+0x8>)
	LDR R1, [R0, #RCC_CFGR]  @ load the current value of the peripheral clock registers
 80002a4:	6841      	ldr	r1, [r0, #4]
	MOV R2, 1 << 10 | 1 << 1  @ some more settings - bit 1 (SW = 10)  - PLL set as system clock
 80002a6:	f240 4202 	movw	r2, #1026	@ 0x402
									   @ bit 10 (HCLK=100) divided by 2 (clock is faster, need to prescale for peripherals)
	ORR R1, R2	@ Set the values of these two clocks (turn them on)
 80002aa:	ea41 0102 	orr.w	r1, r1, r2
	STR R1, [R0, #RCC_CFGR]  @ store the modified register back to the submodule
 80002ae:	6041      	str	r1, [r0, #4]

	LDR R1, [R0, #RCC_CFGR]  @ load the current value of the peripheral clock registers
 80002b0:	6841      	ldr	r1, [r0, #4]
	ORR R1, 1 << USBPRE	@ Set the USB prescaler (when PLL is on for the USB)
 80002b2:	f441 0180 	orr.w	r1, r1, #4194304	@ 0x400000
	STR R1, [R0, #RCC_CFGR]  @ store the modified register back to the submodule
 80002b6:	6041      	str	r1, [r0, #4]

	BX LR @ return
 80002b8:	4770      	bx	lr

080002ba <initialise_power>:

@ initialise the power systems on the microcontroller
@ PWREN (enable power to the clock), SYSCFGEN system clock enable
initialise_power:

	LDR R0, =RCC @ the base address for the register to turn clocks on/off
 80002ba:	485a      	ldr	r0, [pc, #360]	@ (8000424 <loop_forever_reset+0x8>)

	@ enable clock power in APB1ENR
	LDR R1, [R0, #APB1ENR]
 80002bc:	69c1      	ldr	r1, [r0, #28]
	ORR R1, 1 << PWREN @ apply the bit mask for power enable
 80002be:	f041 5180 	orr.w	r1, r1, #268435456	@ 0x10000000
	STR R1, [R0, #APB1ENR]
 80002c2:	61c1      	str	r1, [r0, #28]

	@ enable clock config in APB2ENR
	LDR R1, [R0, #APB2ENR]
 80002c4:	6981      	ldr	r1, [r0, #24]
	ORR R1, 1 << SYSCFGEN @ apply the bit mask to allow clock configuration
 80002c6:	f041 0101 	orr.w	r1, r1, #1
	STR R1, [R0, #APB2ENR]
 80002ca:	6181      	str	r1, [r0, #24]

	BX LR @ return
 80002cc:	4770      	bx	lr

080002ce <delay_loop>:

delay_loop:
    LDR R0, =TIM2 @  load the base address for the timer
 80002ce:	f04f 4080 	mov.w	r0, #1073741824	@ 0x40000000

080002d2 <wait_for_update>:
wait_for_update:
    LDRB R9, [R0, #TIM_SR] @ load a byte from TIM_SR
 80002d2:	f890 9010 	ldrb.w	r9, [r0, #16]
    ANDS R9, R9, #0x1 @ Check UIF flag
 80002d6:	f019 0901 	ands.w	r9, r9, #1
    BEQ wait_for_update @ if there is no flag rising, waiting for flag
 80002da:	d0fa      	beq.n	80002d2 <wait_for_update>
    MOV R10, #0x0
 80002dc:	f04f 0a00 	mov.w	sl, #0
    STRB R10, [R0, #TIM_SR] @ clean the flag
 80002e0:	f880 a010 	strb.w	sl, [r0, #16]
    BX LR
 80002e4:	4770      	bx	lr

080002e6 <cipher_main>:
.text

@ Loading various parameters
cipher_main:

	LDR R8, =0x01 @Desired cypher cycles.
 80002e6:	f04f 0801 	mov.w	r8, #1
	LDR R12, =alphabet_string @Load the address of the alphabet string into register R3.
 80002ea:	f8df c14c 	ldr.w	ip, [pc, #332]	@ 8000438 <loop_forever_reset+0x1c>
	LDR R4, =substitution_cipher_string @Load the address of the substitution cipher string into register R4.
 80002ee:	4c53      	ldr	r4, [pc, #332]	@ (800043c <loop_forever_reset+0x20>)
	LDR R5, =0x-01 @Index of input string.
 80002f0:	f04f 35ff 	mov.w	r5, #4294967295
	LDR R6, =0x00 @Index of alphabet/substitution cipher string.
 80002f4:	f04f 0600 	mov.w	r6, #0

080002f8 <program_loop>:

@ Checks if the number of desired substitution cycles have been completed.
program_loop:

	CMP R8, #0x00 @Checks if the desired number of cycles have been completed.
 80002f8:	f1b8 0f00 	cmp.w	r8, #0
	BEQ return @Terminates the program if the desired number of cycles had been completed.
 80002fc:	d01e      	beq.n	800033c <return>

080002fe <traverse_string_loop>:

@Traverses the string, then calls for decryption.
traverse_string_loop:

	ADD R5, #0x01 @Increments the index for the input string traversal.
 80002fe:	f105 0501 	add.w	r5, r5, #1
	LDRB R7, [R1, R5] @Loads the character of the string at the offset of the increment.
 8000302:	5d4f      	ldrb	r7, [r1, r5]

	CMP R7, R2 @Checks if the null termination character has been reached.
 8000304:	4297      	cmp	r7, r2
	BEQ subtract_cycle @Subtracts one from the remaining cycles (desired cycles).
 8000306:	d011      	beq.n	800032c <subtract_cycle>

	B traverse_substitution_cipher @Traverses through the substitution cipher, looking for a match with the current input string character.
 8000308:	e7ff      	b.n	800030a <traverse_substitution_cipher>

0800030a <traverse_substitution_cipher>:

@Traverses the alphabet, comparing it with the string character, then decoding the string character if it is a match.
traverse_substitution_cipher:

	LDRB R10, [R4, R6] @Loads the character of the substitution cipher at the offset of the substitution cipher increment.
 800030a:	f814 a006 	ldrb.w	sl, [r4, r6]

	CMP R10, #0x00 @Checks if the null termination character has been reached.
 800030e:	f1ba 0f00 	cmp.w	sl, #0
	BEQ letter_not_found
 8000312:	d010      	beq.n	8000336 <letter_not_found>

	CMP R7, R10 @Checks if the current character of the alphabet matches the current character of the input string.
 8000314:	4557      	cmp	r7, sl
	BEQ decode_character @Gets the corresponding substitution cipher character.
 8000316:	d002      	beq.n	800031e <decode_character>

	ADD R6, #0x01 @Increments the index of the substitution cipher.
 8000318:	f106 0601 	add.w	r6, r6, #1

	B traverse_substitution_cipher @Recalls for the next index of the substitution cipher.
 800031c:	e7f5      	b.n	800030a <traverse_substitution_cipher>

0800031e <decode_character>:

@Decoding the string character with the corresponding substitution cipher value.
decode_character:

	LDRB R11, [R12, R6] @Loads the corresponding substitution alphabet based off the offset of the cipher character string.
 800031e:	f81c b006 	ldrb.w	fp, [ip, r6]
	STRB R11, [R1, R5] @Overwrites the input string data with the alphabet data.
 8000322:	f801 b005 	strb.w	fp, [r1, r5]

	LDR R6, =0x00 @Resets the index of the cipher character to the start.
 8000326:	f04f 0600 	mov.w	r6, #0

	B traverse_string_loop @Recalls for the next index of the input string.
 800032a:	e7e8      	b.n	80002fe <traverse_string_loop>

0800032c <subtract_cycle>:

@Removes one from the desired substitution cycles count.
subtract_cycle:

	LDR R5, =0x-01 @Resets the index of the input string to the start.
 800032c:	f04f 35ff 	mov.w	r5, #4294967295
	SUB R8, 0x01 @Subtracts one from the remaining cycles (desired cycles).
 8000330:	f1a8 0801 	sub.w	r8, r8, #1
	B program_loop @Calls for a start of the next cycle.
 8000334:	e7e0      	b.n	80002f8 <program_loop>

08000336 <letter_not_found>:

@Where a letter is not found, the index of alphabet/substitution cipher string is reset.
letter_not_found:

	LDR R6, =0x00
 8000336:	f04f 0600 	mov.w	r6, #0

	B traverse_string_loop
 800033a:	e7e0      	b.n	80002fe <traverse_string_loop>

0800033c <return>:

@Substitution cipher complete, returns back to transmission process
return:

	BX LR @ return
 800033c:	4770      	bx	lr

0800033e <main>:
.text
@ define text

@ this is the entry function called from the c file
main:
	BL enable_timer2_clock
 800033e:	f7ff ff5e 	bl	80001fe <enable_timer2_clock>
	BL initialise_power
 8000342:	f7ff ffba 	bl	80002ba <initialise_power>
	BL enable_peripheral_clocks
 8000346:	f7ff ff60 	bl	800020a <enable_peripheral_clocks>
	BL enable_uart5
 800034a:	f7ff ff74 	bl	8000236 <enable_uart5>
	BL initialise_discovery_board
 800034e:	f7ff ff6d 	bl	800022c <initialise_discovery_board>
	@ store a value for the prescaler
	LDR R0, =TIM2	@ load the base address for the timer
 8000352:	f04f 4080 	mov.w	r0, #1073741824	@ 0x40000000
	@ Then, counter clock frequency CK_CNT is equal to fCK_PSC / (PSC[15:0] + 1), which is 8MHz/(7+1)=1MHz
	MOV R1, #0x7 @ with delay period 1 microsecond
 8000356:	f04f 0107 	mov.w	r1, #7
	STR R1, [R0, TIM_PSC] @ set the prescaler register
 800035a:	6281      	str	r1, [r0, #40]	@ 0x28

	@ see the notes in the trigger_prescaler function
	BL trigger_prescaler
 800035c:	f7ff ff5b 	bl	8000216 <trigger_prescaler>

	@ start the counter and auto-reload running
	LDR R0, =TIM2	@ load the base address for the timer
 8000360:	f04f 4080 	mov.w	r0, #1073741824	@ 0x40000000
	LDR R1, [R0, #TIM_CR1]  @ load the current value of the control registers
 8000364:	6801      	ldr	r1, [r0, #0]
	ORR R1, 1 << 7 | 1 << 0 @ 7st bit is enable Auto-reload preload, 0 is enable Counter
 8000366:	f041 0181 	orr.w	r1, r1, #129	@ 0x81
	STR R1, [R0, #TIM_CR1] @ enable the counter and Auto-reload preload
 800036a:	6001      	str	r1, [r0, #0]

	@ To read in data, we need to use a memory buffer to store the incoming bytes
	@ Get pointers to the buffer and terminating character
	LDR R1, =incoming_buffer
 800036c:	4934      	ldr	r1, [pc, #208]	@ (8000440 <loop_forever_reset+0x24>)
	LDR R2, =user_defined_terminating_character
 800036e:	4a35      	ldr	r2, [pc, #212]	@ (8000444 <loop_forever_reset+0x28>)

	@ dereference the terminating character, store it in R2
	LDRB R2, [R2]
 8000370:	7812      	ldrb	r2, [r2, #0]

	@ Keep a pointer that counts how many bytes have been received
	MOV R3, #0x00
 8000372:	f04f 0300 	mov.w	r3, #0

08000376 <loop_forever>:


@ continue reading forever (NOTE: eventually it will run out of memory as we don't have a big buffer)
loop_forever:

	LDR R4, =UART5 @ the base address for the register to set up UART
 8000376:	4c2f      	ldr	r4, [pc, #188]	@ (8000434 <loop_forever_reset+0x18>)
	LDR R5, [R4, USART_ISR] @ load the status of the UART
 8000378:	69e5      	ldr	r5, [r4, #28]

	TST R5, 1 << UART_ORE | 1 << UART_FE  @ 'AND' the current status with the bit mask that we are interested in
 800037a:	f015 0f0a 	tst.w	r5, #10
						   @ NOTE, the ANDS is used so that if the result is '0' the z register flag is set

	BNE clear_error
 800037e:	d115      	bne.n	80003ac <clear_error>

	TST R5, 1 << UART_RXNE @ check if there was a character to read
 8000380:	f015 0f20 	tst.w	r5, #32
	BEQ loop_forever @ loop back if there was no character to read
 8000384:	d0f7      	beq.n	8000376 <loop_forever>

	LDRB R6, [R4, USART_RDR] @ load the lowest byte (RDR bits [0:7] for an 8 bit read)
 8000386:	f894 6024 	ldrb.w	r6, [r4, #36]	@ 0x24

	CMP R2, R6 @ check that the termination character has been reached
 800038a:	42b2      	cmp	r2, r6
	BNE no_reset
 800038c:	d106      	bne.n	800039c <no_reset>

	BL cipher_main @decipher the string
 800038e:	f7ff ffaa 	bl	80002e6 <cipher_main>
	BL lower_conversion_main @convert the result to lowercase
 8000392:	f7ff ff1f 	bl	80001d4 <lower_conversion_main>

	LDR R4, =USART1 @ the base address for the register to set up UART
 8000396:	4c2c      	ldr	r4, [pc, #176]	@ (8000448 <loop_forever_reset+0x2c>)

	STRB R2, [R1, R3] @Re-add the terminating character (the recieving loop removes it)
 8000398:	54ca      	strb	r2, [r1, r3]
	B String_checking @Begin flashing
 800039a:	e00c      	b.n	80003b6 <String_checking>

0800039c <no_reset>:

@ When not at termination character, resetting the status of the UART
no_reset:

	STRB R6, [R1, R3]
 800039c:	54ce      	strb	r6, [r1, r3]
	ADD R3, #1
 800039e:	f103 0301 	add.w	r3, r3, #1

	@ load the status of the UART
	LDR R5, [R4, USART_RQR]
 80003a2:	69a5      	ldr	r5, [r4, #24]
	ORR R5, 1 << UART_RXFRQ
 80003a4:	f045 0508 	orr.w	r5, r5, #8
	STR R5, [R4, USART_RQR]
 80003a8:	61a5      	str	r5, [r4, #24]

	BGT loop_forever
 80003aa:	dce4      	bgt.n	8000376 <loop_forever>

080003ac <clear_error>:

@ Clear the overrun/frame error flag in the register USART_ICR (see page 897)
clear_error:

	LDR R5, [R4, USART_ICR] @ loading the UART clear flag section
 80003ac:	6a25      	ldr	r5, [r4, #32]
	ORR R5, 1 << UART_ORECF | 1 << UART_FECF @ clear the flags (by setting flags to 1)
 80003ae:	f045 0508 	orr.w	r5, r5, #8
	STR R5, [R4, USART_ICR] @ storing the cleared flags in the clear flag section
 80003b2:	6225      	str	r5, [r4, #32]
	B loop_forever
 80003b4:	e7df      	b.n	8000376 <loop_forever>

080003b6 <String_checking>:

@ Gets the character from the alphabet, initialise various paramters
String_checking:

	@Load string to R11
	MOV R11, R1
 80003b6:	468b      	mov	fp, r1
	@Load checking list to R5 (the STM will flash based on every character which matches the checking list)
	LDR R5, =checking_list
 80003b8:	4d24      	ldr	r5, [pc, #144]	@ (800044c <loop_forever_reset+0x30>)
	@initialize the num counter
	LDR R7, =0x00
 80003ba:	f04f 0700 	mov.w	r7, #0
	@ Initialize the bitmask
	LDR R4, =0b00000000
 80003be:	f04f 0400 	mov.w	r4, #0

	B loop_through_the_checking_list
 80003c2:	e7ff      	b.n	80003c4 <loop_through_the_checking_list>

080003c4 <loop_through_the_checking_list>:

@ Compares the alphabet character to each element in the string, creating a tally of matches
loop_through_the_checking_list:

	LDRB R3, [R5], #1 @load the current character from the checking list
 80003c4:	f815 3b01 	ldrb.w	r3, [r5], #1
	CMP R3, #0 @check if the null terminating character has been reached
 80003c8:	2b00      	cmp	r3, #0
    BEQ finish_scanning @ if R1 equal 0x00, which means the string is end. Turn all LED on
 80003ca:	d016      	beq.n	80003fa <finish_scanning>
    B set_led @Search the input string for instances of the current character of interest.
 80003cc:	e7ff      	b.n	80003ce <set_led>

080003ce <set_led>:

@ set the number of LEDs as the number of times the letter is appears
set_led:

	BL loop_through_the_string @Count the number of instances of the character in the string.
 80003ce:	f000 f80c 	bl	80003ea <loop_through_the_string>
	@ initialize R3 to 1，R3 will be used in bitmask_set branch
	MOV R3,#1
 80003d2:	f04f 0301 	mov.w	r3, #1
	BL bitmask_set
 80003d6:	f000 f815 	bl	8000404 <bitmask_set>
	LDR R0, =GPIOE @ load the address of the GPIOE register into R0
 80003da:	4814      	ldr	r0, [pc, #80]	@ (800042c <loop_forever_reset+0x10>)
	STRB R4, [R0, #ODR + 1] @ store this to the second byte of the ODR (bits 8-15)
 80003dc:	7544      	strb	r4, [r0, #21]

	BL delay_loop @ wait 500ms (function in initialise)
 80003de:	f7ff ff76 	bl	80002ce <delay_loop>
	@ reset the bitmask
	LDR R4, =0b00000000
 80003e2:	f04f 0400 	mov.w	r4, #0
	@Load string to R11
	MOV R11, R1
 80003e6:	468b      	mov	fp, r1
	B loop_through_the_checking_list
 80003e8:	e7ec      	b.n	80003c4 <loop_through_the_checking_list>

080003ea <loop_through_the_string>:

@ Loads the character from the string
loop_through_the_string:

	LDRB R8, [R11], #1 @load the current character of the string
 80003ea:	f81b 8b01 	ldrb.w	r8, [fp], #1

    CMP R8, R2 @Check for the null terminating character.
 80003ee:	4590      	cmp	r8, r2
    BEQ Back @If the null terminating character has been reached, the search is complete. Return to the display LED function.
 80003f0:	d002      	beq.n	80003f8 <Back>

    CMP R8,R3 @Check if the current character matches the character of interest.
 80003f2:	4598      	cmp	r8, r3
    BEQ	num_count @If so, increment the counter.
 80003f4:	d00f      	beq.n	8000416 <num_count>

    B loop_through_the_string
 80003f6:	e7f8      	b.n	80003ea <loop_through_the_string>

080003f8 <Back>:

@ this branch is use to turn back LP saving address after meet the requirement
Back:
	BX LR
 80003f8:	4770      	bx	lr

080003fa <finish_scanning>:

@ Lights up all LEDs to signifiy string checking has been completed.
finish_scanning:

	LDR R4, =0B11111111
 80003fa:	f04f 04ff 	mov.w	r4, #255	@ 0xff
	LDR R0, =GPIOE @ load the address of the GPIOE register into R0
 80003fe:	480b      	ldr	r0, [pc, #44]	@ (800042c <loop_forever_reset+0x10>)
	STRB R4, [R0, #ODR + 1] @ store this to the second byte of the ODR (bits 8-15)
 8000400:	7544      	strb	r4, [r0, #21]

	B loop_forever_reset
 8000402:	e00b      	b.n	800041c <loop_forever_reset>

08000404 <bitmask_set>:

@ sit the LED bitmask according to the number of times the letter is appears
bitmask_set:

	CMP R7, #0 @ Check R3 equal 0 or not
 8000404:	2f00      	cmp	r7, #0
    BEQ Back @ if R3 is 0，bitmask done
 8000406:	d0f7      	beq.n	80003f8 <Back>

    ORR R4, R4, R3 @ Set the lowest bit to 1 if not all LEDs are on
 8000408:	ea44 0403 	orr.w	r4, r4, r3
    LSL R3, R3, #1 @ Shift left to turn on the next LED
 800040c:	ea4f 0343 	mov.w	r3, r3, lsl #1
    SUB R7, #1 @ num counter minus one when led bitmask set 1
 8000410:	f1a7 0701 	sub.w	r7, r7, #1

    B bitmask_set @ loop again
 8000414:	e7f6      	b.n	8000404 <bitmask_set>

08000416 <num_count>:

@count when the letter is appears
num_count:

	ADD R7, #1
 8000416:	f107 0701 	add.w	r7, r7, #1
	B loop_through_the_string @ go back to loop_through_the_string after count
 800041a:	e7e6      	b.n	80003ea <loop_through_the_string>

0800041c <loop_forever_reset>:

@ Resets the buffers to allow for process to start again
loop_forever_reset:

	LDR R1, =incoming_buffer
 800041c:	4908      	ldr	r1, [pc, #32]	@ (8000440 <loop_forever_reset+0x24>)
	MOV R3, #0x00
 800041e:	f04f 0300 	mov.w	r3, #0

	B loop_forever
 8000422:	e7a8      	b.n	8000376 <loop_forever>
	LDR R0, =RCC	@ load the base address for the timer
 8000424:	40021000 	.word	0x40021000
	LDR R1, =500000 @ make the timer overflow after counting to 500000
 8000428:	0007a120 	.word	0x0007a120
	LDR R0, =GPIOE 	@ load the address of the GPIOE register into R0
 800042c:	48001000 	.word	0x48001000
	LDR R0, =GPIOD
 8000430:	48000c00 	.word	0x48000c00
	LDR R0, =UART5 @ the base address for the register to turn clocks on/off
 8000434:	40005000 	.word	0x40005000
	LDR R12, =alphabet_string @Load the address of the alphabet string into register R3.
 8000438:	20000000 	.word	0x20000000
	LDR R4, =substitution_cipher_string @Load the address of the substitution cipher string into register R4.
 800043c:	20000036 	.word	0x20000036
	LDR R1, =incoming_buffer
 8000440:	2000006c 	.word	0x2000006c
	LDR R2, =user_defined_terminating_character
 8000444:	200000aa 	.word	0x200000aa
	LDR R4, =USART1 @ the base address for the register to set up UART
 8000448:	40013800 	.word	0x40013800
	LDR R5, =checking_list
 800044c:	200000ac 	.word	0x200000ac

08000450 <Reset_Handler>:

  .section .text.Reset_Handler
  .weak Reset_Handler
  .type Reset_Handler, %function
Reset_Handler:
  ldr   r0, =_estack
 8000450:	480d      	ldr	r0, [pc, #52]	@ (8000488 <LoopForever+0x2>)
  mov   sp, r0          /* set stack pointer */
 8000452:	4685      	mov	sp, r0
/* Call the clock system initialization function.*/
  bl  SystemInit
 8000454:	f3af 8000 	nop.w

/* Copy the data segment initializers from flash to SRAM */
  ldr r0, =_sdata
 8000458:	480c      	ldr	r0, [pc, #48]	@ (800048c <LoopForever+0x6>)
  ldr r1, =_edata
 800045a:	490d      	ldr	r1, [pc, #52]	@ (8000490 <LoopForever+0xa>)
  ldr r2, =_sidata
 800045c:	4a0d      	ldr	r2, [pc, #52]	@ (8000494 <LoopForever+0xe>)
  movs r3, #0
 800045e:	2300      	movs	r3, #0
  b LoopCopyDataInit
 8000460:	e002      	b.n	8000468 <LoopCopyDataInit>

08000462 <CopyDataInit>:

CopyDataInit:
  ldr r4, [r2, r3]
 8000462:	58d4      	ldr	r4, [r2, r3]
  str r4, [r0, r3]
 8000464:	50c4      	str	r4, [r0, r3]
  adds r3, r3, #4
 8000466:	3304      	adds	r3, #4

08000468 <LoopCopyDataInit>:

LoopCopyDataInit:
  adds r4, r0, r3
 8000468:	18c4      	adds	r4, r0, r3
  cmp r4, r1
 800046a:	428c      	cmp	r4, r1
  bcc CopyDataInit
 800046c:	d3f9      	bcc.n	8000462 <CopyDataInit>

/* Zero fill the bss segment. */
  ldr r2, =_sbss
 800046e:	4a0a      	ldr	r2, [pc, #40]	@ (8000498 <LoopForever+0x12>)
  ldr r4, =_ebss
 8000470:	4c0a      	ldr	r4, [pc, #40]	@ (800049c <LoopForever+0x16>)
  movs r3, #0
 8000472:	2300      	movs	r3, #0
  b LoopFillZerobss
 8000474:	e001      	b.n	800047a <LoopFillZerobss>

08000476 <FillZerobss>:

FillZerobss:
  str  r3, [r2]
 8000476:	6013      	str	r3, [r2, #0]
  adds r2, r2, #4
 8000478:	3204      	adds	r2, #4

0800047a <LoopFillZerobss>:

LoopFillZerobss:
  cmp r2, r4
 800047a:	42a2      	cmp	r2, r4
  bcc FillZerobss
 800047c:	d3fb      	bcc.n	8000476 <FillZerobss>

/* Call static constructors */
  bl __libc_init_array
 800047e:	f000 f811 	bl	80004a4 <__libc_init_array>
/* Call the application's entry point.*/
  bl main
 8000482:	f7ff ff5c 	bl	800033e <main>

08000486 <LoopForever>:

LoopForever:
  b LoopForever
 8000486:	e7fe      	b.n	8000486 <LoopForever>
  ldr   r0, =_estack
 8000488:	2000a000 	.word	0x2000a000
  ldr r0, =_sdata
 800048c:	20000000 	.word	0x20000000
  ldr r1, =_edata
 8000490:	200000c8 	.word	0x200000c8
  ldr r2, =_sidata
 8000494:	0800050c 	.word	0x0800050c
  ldr r2, =_sbss
 8000498:	200000c8 	.word	0x200000c8
  ldr r4, =_ebss
 800049c:	200000e4 	.word	0x200000e4

080004a0 <ADC1_2_IRQHandler>:
 * @retval : None
*/
  .section .text.Default_Handler,"ax",%progbits
Default_Handler:
Infinite_Loop:
  b Infinite_Loop
 80004a0:	e7fe      	b.n	80004a0 <ADC1_2_IRQHandler>
	...

080004a4 <__libc_init_array>:
 80004a4:	b570      	push	{r4, r5, r6, lr}
 80004a6:	4d0d      	ldr	r5, [pc, #52]	@ (80004dc <__libc_init_array+0x38>)
 80004a8:	4c0d      	ldr	r4, [pc, #52]	@ (80004e0 <__libc_init_array+0x3c>)
 80004aa:	1b64      	subs	r4, r4, r5
 80004ac:	10a4      	asrs	r4, r4, #2
 80004ae:	2600      	movs	r6, #0
 80004b0:	42a6      	cmp	r6, r4
 80004b2:	d109      	bne.n	80004c8 <__libc_init_array+0x24>
 80004b4:	4d0b      	ldr	r5, [pc, #44]	@ (80004e4 <__libc_init_array+0x40>)
 80004b6:	4c0c      	ldr	r4, [pc, #48]	@ (80004e8 <__libc_init_array+0x44>)
 80004b8:	f000 f818 	bl	80004ec <_init>
 80004bc:	1b64      	subs	r4, r4, r5
 80004be:	10a4      	asrs	r4, r4, #2
 80004c0:	2600      	movs	r6, #0
 80004c2:	42a6      	cmp	r6, r4
 80004c4:	d105      	bne.n	80004d2 <__libc_init_array+0x2e>
 80004c6:	bd70      	pop	{r4, r5, r6, pc}
 80004c8:	f855 3b04 	ldr.w	r3, [r5], #4
 80004cc:	4798      	blx	r3
 80004ce:	3601      	adds	r6, #1
 80004d0:	e7ee      	b.n	80004b0 <__libc_init_array+0xc>
 80004d2:	f855 3b04 	ldr.w	r3, [r5], #4
 80004d6:	4798      	blx	r3
 80004d8:	3601      	adds	r6, #1
 80004da:	e7f2      	b.n	80004c2 <__libc_init_array+0x1e>
 80004dc:	08000504 	.word	0x08000504
 80004e0:	08000504 	.word	0x08000504
 80004e4:	08000504 	.word	0x08000504
 80004e8:	08000508 	.word	0x08000508

080004ec <_init>:
 80004ec:	b5f8      	push	{r3, r4, r5, r6, r7, lr}
 80004ee:	bf00      	nop
 80004f0:	bcf8      	pop	{r3, r4, r5, r6, r7}
 80004f2:	bc08      	pop	{r3}
 80004f4:	469e      	mov	lr, r3
 80004f6:	4770      	bx	lr

080004f8 <_fini>:
 80004f8:	b5f8      	push	{r3, r4, r5, r6, r7, lr}
 80004fa:	bf00      	nop
 80004fc:	bcf8      	pop	{r3, r4, r5, r6, r7}
 80004fe:	bc08      	pop	{r3}
 8000500:	469e      	mov	lr, r3
 8000502:	4770      	bx	lr
